; Function Attrs: nounwind uwtable
define internal noundef ptr @set_eval_frame_record(ptr noundef %0, ptr noundef %1) #0 {
  %.not.i = icmp eq ptr %0, null
  br i1 %.not.i, label %3, label %4

3:                                                ; preds = %2
  tail call void @__assert_fail(ptr noundef nonnull @.str.151, ptr noundef nonnull @.str.80, i32 noundef 71, ptr noundef nonnull @__PRETTY_FUNCTION__.get_module_state) #12
  unreachable

4:                                                ; preds = %2
  %5 = tail call ptr @PyModule_GetState(ptr noundef nonnull %0) #11
  %.not5.i = icmp eq ptr %5, null
  br i1 %.not5.i, label %6, label %get_module_state.exit

6:                                                ; preds = %4
  tail call void @__assert_fail(ptr noundef nonnull @.str.152, ptr noundef nonnull @.str.80, i32 noundef 73, ptr noundef nonnull @__PRETTY_FUNCTION__.get_module_state) #12
  unreachable

get_module_state.exit:                            ; preds = %4
  %7 = getelementptr i8, ptr %1, i64 8
  %.val = load ptr, ptr %7, align 8, !tbaa !46
  %8 = getelementptr i8, ptr %.val, i64 168
  %.val8 = load i64, ptr %8, align 8, !tbaa !49
  %9 = and i64 %.val8, 33554432
  %.not = icmp eq i64 %9, 0
  br i1 %.not, label %10, label %12

10:                                               ; preds = %get_module_state.exit
  %11 = load ptr, ptr @PyExc_TypeError, align 8, !tbaa !9
  tail call void @PyErr_SetString(ptr noundef %11, ptr noundef nonnull @.str.153) #11
  br label %27

12:                                               ; preds = %get_module_state.exit
  %13 = load ptr, ptr %5, align 8, !tbaa !9
  %14 = load i32, ptr %1, align 8, !tbaa !10
  %15 = icmp slt i32 %14, 0
  br i1 %15, label %_Py_NewRef.exit, label %16

16:                                               ; preds = %12
  %17 = add nuw i32 %14, 1
  store i32 %17, ptr %1, align 8, !tbaa !10
  br label %_Py_NewRef.exit

_Py_NewRef.exit:                                  ; preds = %12, %16
  store ptr %1, ptr %5, align 8, !tbaa !9
  %.not.i9 = icmp eq ptr %13, null
  br i1 %.not.i9, label %Py_XDECREF.exit, label %18

18:                                               ; preds = %_Py_NewRef.exit
  %19 = load i32, ptr %13, align 8, !tbaa !10
  %.not.i.i = icmp sgt i32 %19, -1
  br i1 %.not.i.i, label %20, label %Py_XDECREF.exit

20:                                               ; preds = %18
  %21 = add nsw i32 %19, -1
  store i32 %21, ptr %13, align 8, !tbaa !10
  %22 = icmp eq i32 %21, 0
  br i1 %22, label %23, label %Py_XDECREF.exit

23:                                               ; preds = %20
  tail call void @_Py_Dealloc(ptr noundef nonnull %13) #11
  br label %Py_XDECREF.exit

Py_XDECREF.exit:                                  ; preds = %_Py_NewRef.exit, %18, %20, %23
  %24 = tail call ptr @_PyThreadState_GetCurrent() #11
  %25 = getelementptr inbounds nuw i8, ptr %24, i64 16
  %26 = load ptr, ptr %25, align 8, !tbaa !45
  tail call void @_PyInterpreterState_SetEvalFrameFunc(ptr noundef %26, ptr noundef nonnull @record_eval) #11
  br label %27

27:                                               ; preds = %Py_XDECREF.exit, %10
  %.0 = phi ptr [ @_Py_NoneStruct, %Py_XDECREF.exit ], [ null, %10 ]
  ret ptr %.0
}